; Function Attrs: mustprogress uwtable
define internal fastcc void @_ZN5arrow3ipc12_GLOBAL__N_118InvalidMessageTypeENS0_11MessageTypeES2_(ptr noalias align 8 %agg.result, i32 noundef %expected, i32 noundef %actual) unnamed_addr #0 personality ptr @__gxx_personality_v0 {
entry:
  %ref.tmp.i.i = alloca %"class.std::__cxx11::basic_string", align 8
  %ref.tmp = alloca %"class.std::__cxx11::basic_string", align 8
  %ref.tmp1 = alloca %"class.std::__cxx11::basic_string", align 8
  call void @_ZN5arrow3ipc17FormatMessageTypeB5cxx11ENS0_11MessageTypeE(ptr nonnull sret(%"class.std::__cxx11::basic_string") align 8 %ref.tmp, i32 noundef %expected)
  invoke void @_ZN5arrow3ipc17FormatMessageTypeB5cxx11ENS0_11MessageTypeE(ptr nonnull sret(%"class.std::__cxx11::basic_string") align 8 %ref.tmp1, i32 noundef %actual)
          to label %invoke.cont unwind label %lpad

invoke.cont:                                      ; preds = %entry
  call void @llvm.lifetime.start.p0(i64 32, ptr nonnull %ref.tmp.i.i), !noalias !78
  invoke void @_ZN5arrow4util13StringBuilderIJRA30_KcNSt7__cxx1112basic_stringIcSt11char_traitsIcESaIcEEERA10_S2_SA_EEESA_DpOT_(ptr nonnull sret(%"class.std::__cxx11::basic_string") align 8 %ref.tmp.i.i, ptr noundef nonnull align 1 dereferenceable(30) @.str.43, ptr noundef nonnull align 8 dereferenceable(32) %ref.tmp, ptr noundef nonnull align 1 dereferenceable(10) @.str.44, ptr noundef nonnull align 8 dereferenceable(32) %ref.tmp1)
          to label %.noexc unwind label %lpad2

.noexc:                                           ; preds = %invoke.cont
  invoke void @_ZN5arrow6StatusC1ENS_10StatusCodeERKNSt7__cxx1112basic_stringIcSt11char_traitsIcESaIcEEE(ptr noundef nonnull align 8 dereferenceable(8) %agg.result, i8 noundef signext 5, ptr noundef nonnull align 8 dereferenceable(32) %ref.tmp.i.i)
          to label %invoke.cont3 unwind label %lpad.i.i

lpad.i.i:                                         ; preds = %.noexc
  %0 = landingpad { ptr, i32 }
          cleanup
  call void @_ZNSt7__cxx1112basic_stringIcSt11char_traitsIcESaIcEED1Ev(ptr noundef nonnull align 8 dereferenceable(32) %ref.tmp.i.i) #30
  br label %lpad2.body

invoke.cont3:                                     ; preds = %.noexc
  call void @_ZNSt7__cxx1112basic_stringIcSt11char_traitsIcESaIcEED1Ev(ptr noundef nonnull align 8 dereferenceable(32) %ref.tmp.i.i) #30
  call void @llvm.lifetime.end.p0(i64 32, ptr nonnull %ref.tmp.i.i), !noalias !78
  call void @_ZNSt7__cxx1112basic_stringIcSt11char_traitsIcESaIcEED1Ev(ptr noundef nonnull align 8 dereferenceable(32) %ref.tmp1) #30
  call void @_ZNSt7__cxx1112basic_stringIcSt11char_traitsIcESaIcEED1Ev(ptr noundef nonnull align 8 dereferenceable(32) %ref.tmp) #30
  ret void

lpad:                                             ; preds = %entry
  %1 = landingpad { ptr, i32 }
          cleanup
  br label %ehcleanup

lpad2:                                            ; preds = %invoke.cont
  %2 = landingpad { ptr, i32 }
          cleanup
  br label %lpad2.body

lpad2.body:                                       ; preds = %lpad.i.i, %lpad2
  %eh.lpad-body = phi { ptr, i32 } [ %2, %lpad2 ], [ %0, %lpad.i.i ]
  call void @_ZNSt7__cxx1112basic_stringIcSt11char_traitsIcESaIcEED1Ev(ptr noundef nonnull align 8 dereferenceable(32) %ref.tmp1) #30
  br label %ehcleanup

ehcleanup:                                        ; preds = %lpad2.body, %lpad
  %.pn = phi { ptr, i32 } [ %eh.lpad-body, %lpad2.body ], [ %1, %lpad ]
  call void @_ZNSt7__cxx1112basic_stringIcSt11char_traitsIcESaIcEED1Ev(ptr noundef nonnull align 8 dereferenceable(32) %ref.tmp) #30
  resume { ptr, i32 } %.pn
}